target datalayout = "e-m:e-p270:32:32-p271:32:32-p272:64:64-i64:64-i128:128-f80:128-n8:16:32:64-S128"
target triple = "x86_64-unknown-linux-gnu"

%"struct.tinyobj::vertex_index_t" = type { i32, i32, i32 }

@.str.80 = private unnamed_addr constant [5 x i8] c"/ \09\0D\00", align 1

; Function Attrs: mustprogress nounwind uwtable
define linkonce_odr void @_ZN7tinyobj14vertex_index_tC2Ei(ptr noundef nonnull align 4 dereferenceable(12) %this, i32 noundef %idx) unnamed_addr #0 comdat align 2 {
entry:
  %this.addr = alloca ptr, align 8
  %idx.addr = alloca i32, align 4
  store ptr %this, ptr %this.addr, align 8
  store i32 %idx, ptr %idx.addr, align 4
  %this1 = load ptr, ptr %this.addr, align 8
  %v_idx = getelementptr inbounds %"struct.tinyobj::vertex_index_t", ptr %this1, i32 0, i32 0
  %0 = load i32, ptr %idx.addr, align 4
  store i32 %0, ptr %v_idx, align 4
  %vt_idx = getelementptr inbounds %"struct.tinyobj::vertex_index_t", ptr %this1, i32 0, i32 1
  %1 = load i32, ptr %idx.addr, align 4
  store i32 %1, ptr %vt_idx, align 4
  %vn_idx = getelementptr inbounds %"struct.tinyobj::vertex_index_t", ptr %this1, i32 0, i32 2
  %2 = load i32, ptr %idx.addr, align 4
  store i32 %2, ptr %vn_idx, align 4
  ret void
}

; Function Attrs: mustprogress uwtable
define internal noundef zeroext i1 @_ZN7tinyobjL11parseTripleEPPKciiiPNS_14vertex_index_tERKNS_15warning_contextE(ptr noundef %token, i32 noundef %vsize, i32 noundef %vnsize, i32 noundef %vtsize, ptr noundef %ret, ptr noundef nonnull align 8 dereferenceable(16) %context) #2 {
entry:
  %retval = alloca i1, align 1
  %token.addr = alloca ptr, align 8
  %vsize.addr = alloca i32, align 4
  %vnsize.addr = alloca i32, align 4
  %vtsize.addr = alloca i32, align 4
  %ret.addr = alloca ptr, align 8
  %context.addr = alloca ptr, align 8
  %vi = alloca %"struct.tinyobj::vertex_index_t", align 4
  store ptr %token, ptr %token.addr, align 8
  store i32 %vsize, ptr %vsize.addr, align 4
  store i32 %vnsize, ptr %vnsize.addr, align 4
  store i32 %vtsize, ptr %vtsize.addr, align 4
  store ptr %ret, ptr %ret.addr, align 8
  store ptr %context, ptr %context.addr, align 8
  %0 = load ptr, ptr %ret.addr, align 8
  %tobool = icmp ne ptr %0, null
  br i1 %tobool, label %if.end, label %if.then

if.then:                                          ; preds = %entry
  store i1 false, ptr %retval, align 1
  br label %return

if.end:                                           ; preds = %entry
  call void @_ZN7tinyobj14vertex_index_tC2Ei(ptr noundef nonnull align 4 dereferenceable(12) %vi, i32 noundef -1)
  %1 = load ptr, ptr %token.addr, align 8
  %2 = load ptr, ptr %1, align 8
  %call = call i32 @atoi(ptr noundef %2) #15
  %3 = load i32, ptr %vsize.addr, align 4
  %v_idx = getelementptr inbounds %"struct.tinyobj::vertex_index_t", ptr %vi, i32 0, i32 0
  %4 = load ptr, ptr %context.addr, align 8
  %call1 = call noundef zeroext i1 @_ZN7tinyobjL8fixIndexEiiPibRKNS_15warning_contextE(i32 noundef %call, i32 noundef %3, ptr noundef %v_idx, i1 noundef zeroext false, ptr noundef nonnull align 8 dereferenceable(16) %4)
  br i1 %call1, label %if.end3, label %if.then2

if.then2:                                         ; preds = %if.end
  store i1 false, ptr %retval, align 1
  br label %return

if.end3:                                          ; preds = %if.end
  %5 = load ptr, ptr %token.addr, align 8
  %6 = load ptr, ptr %5, align 8
  %call4 = call i64 @strcspn(ptr noundef %6, ptr noundef @.str.80) #15
  %7 = load ptr, ptr %token.addr, align 8
  %8 = load ptr, ptr %7, align 8
  %add.ptr = getelementptr inbounds i8, ptr %8, i64 %call4
  store ptr %add.ptr, ptr %7, align 8
  %9 = load ptr, ptr %token.addr, align 8
  %10 = load ptr, ptr %9, align 8
  %arrayidx = getelementptr inbounds i8, ptr %10, i64 0
  %11 = load i8, ptr %arrayidx, align 1
  %conv = sext i8 %11 to i32
  %cmp = icmp ne i32 %conv, 47
  br i1 %cmp, label %if.then5, label %if.end6

if.then5:                                         ; preds = %if.end3
  %12 = load ptr, ptr %ret.addr, align 8
  call void @llvm.memcpy.p0.p0.i64(ptr align 4 %12, ptr align 4 %vi, i64 12, i1 false)
  store i1 true, ptr %retval, align 1
  br label %return

if.end6:                                          ; preds = %if.end3
  %13 = load ptr, ptr %token.addr, align 8
  %14 = load ptr, ptr %13, align 8
  %incdec.ptr = getelementptr inbounds i8, ptr %14, i32 1
  store ptr %incdec.ptr, ptr %13, align 8
  %15 = load ptr, ptr %token.addr, align 8
  %16 = load ptr, ptr %15, align 8
  %arrayidx7 = getelementptr inbounds i8, ptr %16, i64 0
  %17 = load i8, ptr %arrayidx7, align 1
  %conv8 = sext i8 %17 to i32
  %cmp9 = icmp eq i32 %conv8, 47
  br i1 %cmp9, label %if.then10, label %if.end18

if.then10:                                        ; preds = %if.end6
  %18 = load ptr, ptr %token.addr, align 8
  %19 = load ptr, ptr %18, align 8
  %incdec.ptr11 = getelementptr inbounds i8, ptr %19, i32 1
  store ptr %incdec.ptr11, ptr %18, align 8
  %20 = load ptr, ptr %token.addr, align 8
  %21 = load ptr, ptr %20, align 8
  %call12 = call i32 @atoi(ptr noundef %21) #15
  %22 = load i32, ptr %vnsize.addr, align 4
  %vn_idx = getelementptr inbounds %"struct.tinyobj::vertex_index_t", ptr %vi, i32 0, i32 2
  %23 = load ptr, ptr %context.addr, align 8
  %call13 = call noundef zeroext i1 @_ZN7tinyobjL8fixIndexEiiPibRKNS_15warning_contextE(i32 noundef %call12, i32 noundef %22, ptr noundef %vn_idx, i1 noundef zeroext true, ptr noundef nonnull align 8 dereferenceable(16) %23)
  br i1 %call13, label %if.end15, label %if.then14

if.then14:                                        ; preds = %if.then10
  store i1 false, ptr %retval, align 1
  br label %return

if.end15:                                         ; preds = %if.then10
  %24 = load ptr, ptr %token.addr, align 8
  %25 = load ptr, ptr %24, align 8
  %call16 = call i64 @strcspn(ptr noundef %25, ptr noundef @.str.80) #15
  %26 = load ptr, ptr %token.addr, align 8
  %27 = load ptr, ptr %26, align 8
  %add.ptr17 = getelementptr inbounds i8, ptr %27, i64 %call16
  store ptr %add.ptr17, ptr %26, align 8
  %28 = load ptr, ptr %ret.addr, align 8
  call void @llvm.memcpy.p0.p0.i64(ptr align 4 %28, ptr align 4 %vi, i64 12, i1 false)
  store i1 true, ptr %retval, align 1
  br label %return

if.end18:                                         ; preds = %if.end6
  %29 = load ptr, ptr %token.addr, align 8
  %30 = load ptr, ptr %29, align 8
  %call19 = call i32 @atoi(ptr noundef %30) #15
  %31 = load i32, ptr %vtsize.addr, align 4
  %vt_idx = getelementptr inbounds %"struct.tinyobj::vertex_index_t", ptr %vi, i32 0, i32 1
  %32 = load ptr, ptr %context.addr, align 8
  %call20 = call noundef zeroext i1 @_ZN7tinyobjL8fixIndexEiiPibRKNS_15warning_contextE(i32 noundef %call19, i32 noundef %31, ptr noundef %vt_idx, i1 noundef zeroext true, ptr noundef nonnull align 8 dereferenceable(16) %32)
  br i1 %call20, label %if.end22, label %if.then21

if.then21:                                        ; preds = %if.end18
  store i1 false, ptr %retval, align 1
  br label %return

if.end22:                                         ; preds = %if.end18
  %33 = load ptr, ptr %token.addr, align 8
  %34 = load ptr, ptr %33, align 8
  %call23 = call i64 @strcspn(ptr noundef %34, ptr noundef @.str.80) #15
  %35 = load ptr, ptr %token.addr, align 8
  %36 = load ptr, ptr %35, align 8
  %add.ptr24 = getelementptr inbounds i8, ptr %36, i64 %call23
  store ptr %add.ptr24, ptr %35, align 8
  %37 = load ptr, ptr %token.addr, align 8
  %38 = load ptr, ptr %37, align 8
  %arrayidx25 = getelementptr inbounds i8, ptr %38, i64 0
  %39 = load i8, ptr %arrayidx25, align 1
  %conv26 = sext i8 %39 to i32
  %cmp27 = icmp ne i32 %conv26, 47
  br i1 %cmp27, label %if.then28, label %if.end29

if.then28:                                        ; preds = %if.end22
  %40 = load ptr, ptr %ret.addr, align 8
  call void @llvm.memcpy.p0.p0.i64(ptr align 4 %40, ptr align 4 %vi, i64 12, i1 false)
  store i1 true, ptr %retval, align 1
  br label %return

if.end29:                                         ; preds = %if.end22
  %41 = load ptr, ptr %token.addr, align 8
  %42 = load ptr, ptr %41, align 8
  %incdec.ptr30 = getelementptr inbounds i8, ptr %42, i32 1
  store ptr %incdec.ptr30, ptr %41, align 8
  %43 = load ptr, ptr %token.addr, align 8
  %44 = load ptr, ptr %43, align 8
  %call31 = call i32 @atoi(ptr noundef %44) #15
  %45 = load i32, ptr %vnsize.addr, align 4
  %vn_idx32 = getelementptr inbounds %"struct.tinyobj::vertex_index_t", ptr %vi, i32 0, i32 2
  %46 = load ptr, ptr %context.addr, align 8
  %call33 = call noundef zeroext i1 @_ZN7tinyobjL8fixIndexEiiPibRKNS_15warning_contextE(i32 noundef %call31, i32 noundef %45, ptr noundef %vn_idx32, i1 noundef zeroext true, ptr noundef nonnull align 8 dereferenceable(16) %46)
  br i1 %call33, label %if.end35, label %if.then34

if.then34:                                        ; preds = %if.end29
  store i1 false, ptr %retval, align 1
  br label %return

if.end35:                                         ; preds = %if.end29
  %47 = load ptr, ptr %token.addr, align 8
  %48 = load ptr, ptr %47, align 8
  %call36 = call i64 @strcspn(ptr noundef %48, ptr noundef @.str.80) #15
  %49 = load ptr, ptr %token.addr, align 8
  %50 = load ptr, ptr %49, align 8
  %add.ptr37 = getelementptr inbounds i8, ptr %50, i64 %call36
  store ptr %add.ptr37, ptr %49, align 8
  %51 = load ptr, ptr %ret.addr, align 8
  call void @llvm.memcpy.p0.p0.i64(ptr align 4 %51, ptr align 4 %vi, i64 12, i1 false)
  store i1 true, ptr %retval, align 1
  br label %return

return:                                           ; preds = %if.end35, %if.then34, %if.then28, %if.then21, %if.end15, %if.then14, %if.then5, %if.then2, %if.then
  %52 = load i1, ptr %retval, align 1
  ret i1 %52
}