; Function Attrs: mustprogress uwtable
define internal fastcc noundef zeroext i1 @_ZN7tinyobjL11parseTripleEPPKciiiPNS_14vertex_index_tERKNS_15warning_contextE(ptr nocapture noundef %token, i32 noundef %vsize, i32 noundef %vnsize, i32 noundef %vtsize, ptr noundef writeonly %ret, ptr nocapture noundef nonnull readonly align 8 dereferenceable(16) %context) unnamed_addr #3 {
entry:
  %vi = alloca %"struct.tinyobj::vertex_index_t", align 4
  %tobool.not = icmp eq ptr %ret, null
  br i1 %tobool.not, label %return, label %if.end

if.end:                                           ; preds = %entry
  store i32 -1, ptr %vi, align 4
  %vt_idx.i = getelementptr inbounds i8, ptr %vi, i64 4
  store i32 -1, ptr %vt_idx.i, align 4
  %vn_idx.i = getelementptr inbounds i8, ptr %vi, i64 8
  store i32 -1, ptr %vn_idx.i, align 4
  %0 = load ptr, ptr %token, align 8
  %call = tail call i32 @atoi(ptr nocapture noundef %0) #25
  %call1 = call fastcc noundef zeroext i1 @_ZN7tinyobjL8fixIndexEiiPibRKNS_15warning_contextE(i32 noundef %call, i32 noundef %vsize, ptr noundef nonnull %vi, i1 noundef zeroext false, ptr noundef nonnull align 8 dereferenceable(16) %context)
  br i1 %call1, label %if.end3, label %return

if.end3:                                          ; preds = %if.end
  %1 = load ptr, ptr %token, align 8
  %call4 = call i64 @strcspn(ptr noundef %1, ptr noundef nonnull @.str.80) #25
  %add.ptr = getelementptr inbounds i8, ptr %1, i64 %call4
  store ptr %add.ptr, ptr %token, align 8
  %2 = load i8, ptr %add.ptr, align 1
  %cmp.not = icmp eq i8 %2, 47
  br i1 %cmp.not, label %if.end6, label %return.sink.split

if.end6:                                          ; preds = %if.end3
  %incdec.ptr = getelementptr inbounds i8, ptr %add.ptr, i64 1
  store ptr %incdec.ptr, ptr %token, align 8
  %3 = load i8, ptr %incdec.ptr, align 1
  %cmp9 = icmp eq i8 %3, 47
  br i1 %cmp9, label %if.then10, label %if.end18

if.then10:                                        ; preds = %if.end6
  %incdec.ptr11 = getelementptr inbounds i8, ptr %add.ptr, i64 2
  store ptr %incdec.ptr11, ptr %token, align 8
  %call12 = call i32 @atoi(ptr nocapture noundef nonnull %incdec.ptr11) #25
  %call13 = call fastcc noundef zeroext i1 @_ZN7tinyobjL8fixIndexEiiPibRKNS_15warning_contextE(i32 noundef %call12, i32 noundef %vnsize, ptr noundef nonnull %vn_idx.i, i1 noundef zeroext true, ptr noundef nonnull align 8 dereferenceable(16) %context)
  br i1 %call13, label %return.sink.split.sink.split, label %return

if.end18:                                         ; preds = %if.end6
  %call19 = call i32 @atoi(ptr nocapture noundef nonnull %incdec.ptr) #25
  %call20 = call fastcc noundef zeroext i1 @_ZN7tinyobjL8fixIndexEiiPibRKNS_15warning_contextE(i32 noundef %call19, i32 noundef %vtsize, ptr noundef nonnull %vt_idx.i, i1 noundef zeroext true, ptr noundef nonnull align 8 dereferenceable(16) %context)
  br i1 %call20, label %if.end22, label %return

if.end22:                                         ; preds = %if.end18
  %4 = load ptr, ptr %token, align 8
  %call23 = call i64 @strcspn(ptr noundef %4, ptr noundef nonnull @.str.80) #25
  %add.ptr24 = getelementptr inbounds i8, ptr %4, i64 %call23
  store ptr %add.ptr24, ptr %token, align 8
  %5 = load i8, ptr %add.ptr24, align 1
  %cmp27.not = icmp eq i8 %5, 47
  br i1 %cmp27.not, label %if.end29, label %return.sink.split

if.end29:                                         ; preds = %if.end22
  %incdec.ptr30 = getelementptr inbounds i8, ptr %add.ptr24, i64 1
  store ptr %incdec.ptr30, ptr %token, align 8
  %call31 = call i32 @atoi(ptr nocapture noundef nonnull %incdec.ptr30) #25
  %call33 = call fastcc noundef zeroext i1 @_ZN7tinyobjL8fixIndexEiiPibRKNS_15warning_contextE(i32 noundef %call31, i32 noundef %vnsize, ptr noundef nonnull %vn_idx.i, i1 noundef zeroext true, ptr noundef nonnull align 8 dereferenceable(16) %context)
  br i1 %call33, label %return.sink.split.sink.split, label %return

return.sink.split.sink.split:                     ; preds = %if.end29, %if.then10
  %6 = load ptr, ptr %token, align 8
  %call16 = call i64 @strcspn(ptr noundef %6, ptr noundef nonnull @.str.80) #25
  %add.ptr17 = getelementptr inbounds i8, ptr %6, i64 %call16
  store ptr %add.ptr17, ptr %token, align 8
  br label %return.sink.split

return.sink.split:                                ; preds = %return.sink.split.sink.split, %if.end22, %if.end3
  call void @llvm.memcpy.p0.p0.i64(ptr noundef nonnull align 4 dereferenceable(12) %ret, ptr noundef nonnull align 4 dereferenceable(12) %vi, i64 12, i1 false)
  br label %return

return:                                           ; preds = %return.sink.split, %if.end29, %if.end18, %if.then10, %if.end, %entry
  %retval.0 = phi i1 [ false, %entry ], [ false, %if.end ], [ false, %if.then10 ], [ false, %if.end18 ], [ false, %if.end29 ], [ true, %return.sink.split ]
  ret i1 %retval.0
}